; Function Attrs: nounwind uwtable
define noalias noundef nonnull ptr @l_Lean_withTraceNode___at_Lean_Elab_Tactic_BVDecide_Frontend_Normalize_bvNormalize___spec__1___lambda__1(ptr noundef %0, ptr noundef %1, ptr noundef %2, ptr noundef %3, ptr noundef %4, ptr readnone captures(none) %5, ptr noundef %6, ptr noundef %7, ptr noundef %8, ptr noundef %9, ptr noundef %10) local_unnamed_addr #0 {
  %12 = ptrtoint ptr %8 to i64
  %13 = and i64 %12, 1
  %.not = icmp eq i64 %13, 0
  br i1 %.not, label %14, label %lean_inc.exit22

14:                                               ; preds = %11
  %.val.i = load i32, ptr %8, align 4, !tbaa !4
  %15 = icmp sgt i32 %.val.i, 0
  br i1 %15, label %16, label %18, !prof !14

16:                                               ; preds = %14
  %17 = add nuw i32 %.val.i, 1
  store i32 %17, ptr %8, align 4, !tbaa !4
  br label %lean_inc.exit22

18:                                               ; preds = %14
  %.not.i25 = icmp eq i32 %.val.i, 0
  br i1 %.not.i25, label %lean_inc.exit22, label %19

19:                                               ; preds = %18
  tail call void @lean_inc_ref_cold(ptr noundef nonnull %8) #4
  br label %lean_inc.exit22

lean_inc.exit22:                                  ; preds = %19, %18, %16, %11
  %20 = tail call ptr @l___private_Lean_Util_Trace_0__Lean_addTraceNode___at_Lean_Meta_processPostponed___spec__3(ptr noundef %0, ptr noundef %4, ptr noundef %1, ptr noundef %2, ptr noundef %6, ptr noundef %7, ptr noundef %8, ptr noundef %9, ptr noundef %10) #4
  %21 = getelementptr inbounds nuw i8, ptr %20, i64 16
  %22 = load ptr, ptr %21, align 8, !tbaa !9
  %23 = ptrtoint ptr %22 to i64
  %24 = and i64 %23, 1
  %.not29 = icmp eq i64 %24, 0
  br i1 %.not29, label %25, label %lean_inc.exit

25:                                               ; preds = %lean_inc.exit22
  %.val.i26 = load i32, ptr %22, align 4, !tbaa !4
  %26 = icmp sgt i32 %.val.i26, 0
  br i1 %26, label %27, label %29, !prof !14

27:                                               ; preds = %25
  %28 = add nuw i32 %.val.i26, 1
  store i32 %28, ptr %22, align 4, !tbaa !4
  br label %lean_inc.exit

29:                                               ; preds = %25
  %.not.i27 = icmp eq i32 %.val.i26, 0
  br i1 %.not.i27, label %lean_inc.exit, label %30

30:                                               ; preds = %29
  tail call void @lean_inc_ref_cold(ptr noundef nonnull %22) #4
  br label %lean_inc.exit

lean_inc.exit:                                    ; preds = %30, %29, %27, %lean_inc.exit22
  %31 = ptrtoint ptr %20 to i64
  %32 = and i64 %31, 1
  %.not30 = icmp eq i64 %32, 0
  br i1 %.not30, label %33, label %lean_dec.exit21

33:                                               ; preds = %lean_inc.exit
  %34 = load i32, ptr %20, align 4, !tbaa !4
  %35 = icmp sgt i32 %34, 1
  br i1 %35, label %36, label %38, !prof !14

36:                                               ; preds = %33
  %37 = add nsw i32 %34, -1
  store i32 %37, ptr %20, align 4, !tbaa !4
  br label %lean_dec.exit21

38:                                               ; preds = %33
  %.not.i = icmp eq i32 %34, 0
  br i1 %.not.i, label %lean_dec.exit21, label %39

39:                                               ; preds = %38
  tail call void @lean_dec_ref_cold(ptr noundef nonnull %20) #4
  br label %lean_dec.exit21

lean_dec.exit21:                                  ; preds = %39, %38, %36, %lean_inc.exit
  %40 = tail call ptr @l_MonadExcept_ofExcept___at_Lean_Elab_Tactic_BVDecide_Frontend_Normalize_bvNormalize___spec__2(ptr noundef %3, ptr poison, ptr poison, ptr poison, ptr poison, ptr noundef %22)
  br i1 %.not, label %41, label %lean_dec.exit

41:                                               ; preds = %lean_dec.exit21
  %42 = load i32, ptr %8, align 4, !tbaa !4
  %43 = icmp sgt i32 %42, 1
  br i1 %43, label %44, label %46, !prof !14

44:                                               ; preds = %41
  %45 = add nsw i32 %42, -1
  store i32 %45, ptr %8, align 4, !tbaa !4
  br label %lean_dec.exit

46:                                               ; preds = %41
  %.not.i23 = icmp eq i32 %42, 0
  br i1 %.not.i23, label %lean_dec.exit, label %47

47:                                               ; preds = %46
  tail call void @lean_dec_ref_cold(ptr noundef nonnull %8) #4
  br label %lean_dec.exit

lean_dec.exit:                                    ; preds = %47, %46, %44, %lean_dec.exit21
  ret ptr %40
}